; Function Attrs: nounwind sspstrong uwtable
define dso_local void @ruby_script(ptr noundef %0) local_unnamed_addr #0 {
  %.not = icmp eq ptr %0, null
  br i1 %.not, label %8, label %2

2:                                                ; preds = %1
  %3 = tail call i64 @rb_external_str_new_cstr(ptr noundef nonnull %0) #25
  %4 = tail call i64 @rb_str_freeze(i64 noundef %3) #25
  %5 = load ptr, ptr @ruby_current_vm_ptr, align 8, !tbaa !12
  %6 = getelementptr inbounds nuw i8, ptr %5, i64 1264
  store i64 %4, ptr %6, align 8, !tbaa !71
  %7 = getelementptr inbounds nuw i8, ptr %5, i64 1256
  store i64 %4, ptr %7, align 8, !tbaa !72
  tail call void @rb_vm_set_progname(i64 noundef %4) #25
  br label %8

8:                                                ; preds = %2, %1
  ret void
}